(dp1
S'pardus'
p2
S'http://packages.pardus.org.tr/pardus/kurumsal2/stable/x86_64/pisi-index.xml.xz'
p3
sS'devel'
p4
S'http://packages.pardus.org.tr/pardus/kurumsal2/devel/x86_64/pisi-index.xml.xz'
p5
s.