Certificate:
    Data:
        Version: 3 (0x2)
        Serial Number:
            83:56:00:dc:05:5d:45:9f
        Signature Algorithm: md5WithRSAEncryption
        Issuer: C=BG, ST=Koprinka, L=Kazanlak, O=Chorovi, OU=Home, CN=FakeCA/emailAddress=fake@fake.com
        Validity
            Not Before: Aug 19 11:45:53 2007 GMT
            Not After : Aug 18 11:45:53 2008 GMT
        Subject: C=TR, ST=Gunesli, L=Istanbul, O=Targus, OU=HomeLna, CN=makix/emailAddress=makix@hmail.com
        Subject Public Key Info:
            Public Key Algorithm: rsaEncryption
            RSA Public Key: (1024 bit)
                Modulus (1024 bit):
                    00:a0:77:25:f1:07:d9:26:2b:0e:c7:17:31:22:0a:
                    05:89:96:6f:38:b4:d2:10:aa:73:1b:ac:52:fe:21:
                    4c:c2:ff:ad:58:fb:f8:96:df:a3:c5:7a:4b:ee:57:
                    af:d2:ac:82:c4:f0:57:23:e4:cd:71:4a:1b:06:03:
                    2c:f0:70:d4:a4:d6:dd:e4:a2:56:e4:f6:ff:f2:fe:
                    40:08:b9:cf:d0:f5:f9:11:ab:4d:a2:3e:9d:10:a7:
                    93:af:7f:1e:bb:3d:40:f2:12:3b:77:67:2f:fe:7b:
                    ba:d2:2b:9f:fd:d1:ea:b8:c6:41:fc:6d:e7:97:98:
                    ab:33:54:aa:ee:c4:ae:d1:21
                Exponent: 65537 (0x10001)
        X509v3 extensions:
            X509v3 Basic Constraints: 
                CA:FALSE
            Netscape Comment: 
                OpenSSL Generated Certificate
            X509v3 Subject Key Identifier: 
                83:CE:99:75:BE:B2:30:C2:48:FD:32:F5:BC:64:E2:0B:71:A6:51:C5
            X509v3 Authority Key Identifier: 
                keyid:77:42:9E:F6:40:0C:DB:E2:04:BF:F4:B7:53:B4:65:DE:AE:92:F1:27
                DirName:/C=BG/ST=Koprinka/L=Kazanlak/O=Chorovi/OU=Home/CN=FakeCA/emailAddress=fake@fake.com
                serial:83:56:00:DC:05:5D:45:9D

    Signature Algorithm: md5WithRSAEncryption
        66:0e:49:51:92:b2:92:1b:43:de:14:c9:a1:b8:65:67:8d:88:
        de:99:e1:1e:a1:b1:f7:a5:eb:55:70:da:ac:ea:3b:fa:ae:9d:
        2f:cc:c1:9f:58:7e:2a:50:cd:f7:95:6e:09:7f:5f:f1:fc:9e:
        09:d8:eb:ed:2b:d0:91:b0:ec:8d:00:12:ca:7e:fd:17:9e:51:
        0c:9d:32:48:39:eb:d3:b3:43:08:ea:2c:1e:8d:6a:d5:8d:d0:
        a0:ef:db:7b:3b:bc:e5:71:89:04:1a:74:59:53:58:5e:27:4c:
        23:35:5b:0b:b8:12:37:69:b4:46:4f:26:d7:ff:a6:12:2a:60:
        71:65
-----BEGIN CERTIFICATE-----
MIIDoTCCAwqgAwIBAgIJAINWANwFXUWfMA0GCSqGSIb3DQEBBAUAMIGDMQswCQYD
VQQGEwJCRzERMA8GA1UECBMIS29wcmlua2ExETAPBgNVBAcTCEthemFubGFrMRAw
DgYDVQQKEwdDaG9yb3ZpMQ0wCwYDVQQLEwRIb21lMQ8wDQYDVQQDEwZGYWtlQ0Ex
HDAaBgkqhkiG9w0BCQEWDWZha2VAZmFrZS5jb20wHhcNMDcwODE5MTE0NTUzWhcN
MDgwODE4MTE0NTUzWjCBhTELMAkGA1UEBhMCVFIxEDAOBgNVBAgTB0d1bmVzbGkx
ETAPBgNVBAcTCElzdGFuYnVsMQ8wDQYDVQQKEwZUYXJndXMxEDAOBgNVBAsTB0hv
bWVMbmExDjAMBgNVBAMTBW1ha2l4MR4wHAYJKoZIhvcNAQkBFg9tYWtpeEBobWFp
bC5jb20wgZ8wDQYJKoZIhvcNAQEBBQADgY0AMIGJAoGBAKB3JfEH2SYrDscXMSIK
BYmWbzi00hCqcxusUv4hTML/rVj7+Jbfo8V6S+5Xr9KsgsTwVyPkzXFKGwYDLPBw
1KTW3eSiVuT2//L+QAi5z9D1+RGrTaI+nRCnk69/Hrs9QPISO3dnL/57utIrn/3R
6rjGQfxt55eYqzNUqu7ErtEhAgMBAAGjggEXMIIBEzAJBgNVHRMEAjAAMCwGCWCG
SAGG+EIBDQQfFh1PcGVuU1NMIEdlbmVyYXRlZCBDZXJ0aWZpY2F0ZTAdBgNVHQ4E
FgQUg86Zdb6yMMJI/TL1vGTiC3GmUcUwgbgGA1UdIwSBsDCBrYAUd0Ke9kAM2+IE
v/S3U7Rl3q6S8SehgYmkgYYwgYMxCzAJBgNVBAYTAkJHMREwDwYDVQQIEwhLb3By
aW5rYTERMA8GA1UEBxMIS2F6YW5sYWsxEDAOBgNVBAoTB0Nob3JvdmkxDTALBgNV
BAsTBEhvbWUxDzANBgNVBAMTBkZha2VDQTEcMBoGCSqGSIb3DQEJARYNZmFrZUBm
YWtlLmNvbYIJAINWANwFXUWdMA0GCSqGSIb3DQEBBAUAA4GBAGYOSVGSspIbQ94U
yaG4ZWeNiN6Z4R6hsfel61Vw2qzqO/qunS/MwZ9YfipQzfeVbgl/X/H8ngnY6+0r
0JGw7I0AEsp+/ReeUQydMkg569OzQwjqLB6NatWN0KDv23s7vOVxiQQadFlTWF4n
TCM1Wwu4EjdptEZPJtf/phIqYHFl
-----END CERTIFICATE-----
